; Function Attrs: mustprogress nounwind uwtable
define hidden noundef zeroext i1 @_ZN13BootstrapInfo23save_and_throw_indy_excEP10JavaThread(ptr noundef nonnull align 8 dereferenceable(128) %0, ptr noundef %1) local_unnamed_addr #0 align 2 {
  %3 = getelementptr inbounds i8, ptr %0, i64 8
  %4 = load ptr, ptr %3, align 8
  %5 = getelementptr inbounds i8, ptr %4, i64 16
  %6 = load ptr, ptr %5, align 8
  %7 = getelementptr inbounds i8, ptr %0, i64 24
  %8 = load i32, ptr %7, align 8
  %9 = getelementptr inbounds i8, ptr %0, i64 28
  %10 = load i32, ptr %9, align 4
  %11 = getelementptr inbounds i8, ptr %4, i64 8
  %12 = load ptr, ptr %11, align 8
  %13 = getelementptr inbounds i8, ptr %12, i64 4
  %14 = sext i32 %8 to i64
  %15 = getelementptr inbounds i8, ptr %13, i64 %14
  %16 = load volatile i8, ptr %15, align 1
  tail call void asm sideeffect "", "~{memory},~{dirflag},~{fpsr},~{flags}"() #9, !srcloc !6
  %17 = tail call noundef zeroext i1 @_ZN17ConstantPoolCache23save_and_throw_indy_excERK18constantPoolHandleii11constantTagP10JavaThread(ptr noundef nonnull align 8 dereferenceable(64) %6, ptr noundef nonnull align 8 dereferenceable(16) %3, i32 noundef %8, i32 noundef %10, i8 %16, ptr noundef %1) #9
  %18 = getelementptr inbounds i8, ptr %1, i64 8
  %19 = load ptr, ptr %18, align 8
  %.not = icmp eq ptr %19, null
  %. = and i1 %17, %.not
  ret i1 %.
}